; Function Attrs: mustprogress uwtable
define dso_local void @_ZNK6google8protobuf20ConformanceTestSuite25ConformanceRequestSetting14NewTestMessageEv(ptr noalias nocapture writeonly sret(%"class.std::unique_ptr") align 8 %agg.result, ptr nocapture noundef nonnull readonly align 8 dereferenceable(136) %this) local_unnamed_addr #3 align 2 personality ptr @__gxx_personality_v0 {
entry:
  %prototype_message_for_compare_ = getelementptr inbounds i8, ptr %this, i64 96
  %0 = load ptr, ptr %prototype_message_for_compare_, align 8
  %vtable = load ptr, ptr %0, align 8
  %vfn = getelementptr inbounds i8, ptr %vtable, i64 24
  %1 = load ptr, ptr %vfn, align 8
  %call2 = tail call noundef ptr %1(ptr noundef nonnull align 8 dereferenceable(16) %0)
  store ptr %call2, ptr %agg.result, align 8
  ret void
}